; Function Attrs: mustprogress uwtable
define dso_local void @_ZN4pbrt10ThreadPool6WorkerEv(ptr noundef nonnull align 8 dereferenceable(128) %0) #0 align 2 personality ptr @__gxx_personality_v0 {
  %2 = alloca %"class.std::unique_lock", align 8
  %3 = load i32, ptr @_ZN4pbrt7logging8logLevelE, align 4, !tbaa !75
  %4 = icmp slt i32 %3, 1
  br i1 %4, label %5, label %6

5:                                                ; preds = %1
  tail call void @_ZN4pbrt3LogENS_8LogLevelEPKciS2_(i32 noundef 0, ptr noundef nonnull @.str.1, i32 noundef 53, ptr noundef nonnull @.str.5)
  br label %6

6:                                                ; preds = %5, %1
  call void @llvm.lifetime.start.p0(i64 16, ptr nonnull %2) #25
  %7 = getelementptr inbounds nuw i8, ptr %0, i64 24
  store ptr %7, ptr %2, align 8, !tbaa !25
  %8 = getelementptr inbounds nuw i8, ptr %2, i64 8
  %9 = tail call noundef i32 @pthread_mutex_lock(ptr noundef nonnull align 8 dereferenceable(40) %7) #25
  %.not.i.i.i = icmp eq i32 %9, 0
  br i1 %.not.i.i.i, label %_ZNSt11unique_lockISt5mutexEC2ERS0_.exit, label %10

10:                                               ; preds = %6
  tail call void @_ZSt20__throw_system_errori(i32 noundef %9) #27
  unreachable

_ZNSt11unique_lockISt5mutexEC2ERS0_.exit:         ; preds = %6
  store i8 1, ptr %8, align 8, !tbaa !29
  %11 = getelementptr inbounds nuw i8, ptr %0, i64 64
  br label %12

12:                                               ; preds = %15, %_ZNSt11unique_lockISt5mutexEC2ERS0_.exit
  %13 = load i8, ptr %11, align 8, !tbaa !77, !range !41, !noundef !78
  %14 = trunc nuw i8 %13 to i1
  br i1 %14, label %23, label %15

15:                                               ; preds = %12
  invoke void @_ZN4pbrt10ThreadPool10WorkOrWaitEPSt11unique_lockISt5mutexEb(ptr noundef nonnull align 8 dereferenceable(128) %0, ptr noundef nonnull %2, i1 noundef zeroext false)
          to label %12 unwind label %.loopexit, !llvm.loop !79

.loopexit:                                        ; preds = %15
  %lpad.loopexit = landingpad { ptr, i32 }
          cleanup
  br label %16

.loopexit.split-lp:                               ; preds = %26
  %lpad.loopexit.split-lp = landingpad { ptr, i32 }
          cleanup
  br label %16

16:                                               ; preds = %.loopexit.split-lp, %.loopexit
  %lpad.phi = phi { ptr, i32 } [ %lpad.loopexit, %.loopexit ], [ %lpad.loopexit.split-lp, %.loopexit.split-lp ]
  %17 = load i8, ptr %8, align 8, !tbaa !29, !range !41, !noundef !78
  %18 = trunc nuw i8 %17 to i1
  br i1 %18, label %19, label %_ZNSt11unique_lockISt5mutexED2Ev.exit

19:                                               ; preds = %16
  %20 = load ptr, ptr %2, align 8, !tbaa !25
  %.not.i.i = icmp eq ptr %20, null
  br i1 %.not.i.i, label %_ZNSt11unique_lockISt5mutexED2Ev.exit, label %21

21:                                               ; preds = %19
  %22 = call noundef i32 @pthread_mutex_unlock(ptr noundef nonnull align 8 dereferenceable(40) %20) #25
  br label %_ZNSt11unique_lockISt5mutexED2Ev.exit

_ZNSt11unique_lockISt5mutexED2Ev.exit:            ; preds = %16, %19, %21
  call void @llvm.lifetime.end.p0(i64 16, ptr nonnull %2) #25
  resume { ptr, i32 } %lpad.phi

23:                                               ; preds = %12
  %24 = load i32, ptr @_ZN4pbrt7logging8logLevelE, align 4, !tbaa !75
  %25 = icmp slt i32 %24, 1
  br i1 %25, label %26, label %27

26:                                               ; preds = %23
  invoke void @_ZN4pbrt3LogENS_8LogLevelEPKciS2_(i32 noundef 0, ptr noundef nonnull @.str.1, i32 noundef 63, ptr noundef nonnull @.str.6)
          to label %27 unwind label %.loopexit.split-lp

27:                                               ; preds = %26, %23
  %28 = load i8, ptr %8, align 8, !tbaa !29, !range !41, !noundef !78
  %29 = trunc nuw i8 %28 to i1
  br i1 %29, label %30, label %_ZNSt11unique_lockISt5mutexED2Ev.exit3

30:                                               ; preds = %27
  %31 = load ptr, ptr %2, align 8, !tbaa !25
  %.not.i.i2 = icmp eq ptr %31, null
  br i1 %.not.i.i2, label %_ZNSt11unique_lockISt5mutexED2Ev.exit3, label %32

32:                                               ; preds = %30
  %33 = call noundef i32 @pthread_mutex_unlock(ptr noundef nonnull align 8 dereferenceable(40) %31) #25
  br label %_ZNSt11unique_lockISt5mutexED2Ev.exit3

_ZNSt11unique_lockISt5mutexED2Ev.exit3:           ; preds = %27, %30, %32
  call void @llvm.lifetime.end.p0(i64 16, ptr nonnull %2) #25
  ret void
}